; Function Attrs: nounwind uwtable
define dso_local void @build_base_rel_tlists(ptr noundef %0, ptr noundef %1) local_unnamed_addr #0 {
  %3 = tail call ptr @pull_var_clause(ptr noundef %1, i32 noundef 26) #7
  %.not = icmp eq ptr %3, null
  br i1 %.not, label %6, label %4

4:                                                ; preds = %2
  %5 = tail call ptr @bms_make_singleton(i32 noundef 0) #7
  tail call void @add_vars_to_targetlist(ptr noundef %0, ptr noundef nonnull %3, ptr noundef %5)
  tail call void @list_free(ptr noundef nonnull %3) #7
  br label %6

6:                                                ; preds = %4, %2
  %7 = getelementptr inbounds nuw i8, ptr %0, i64 8
  %8 = load ptr, ptr %7, align 8
  %9 = getelementptr inbounds nuw i8, ptr %8, i64 184
  %10 = load ptr, ptr %9, align 8
  %.not13 = icmp eq ptr %10, null
  br i1 %.not13, label %15, label %11

11:                                               ; preds = %6
  %12 = tail call ptr @pull_var_clause(ptr noundef nonnull %10, i32 noundef 18) #7
  %.not14 = icmp eq ptr %12, null
  br i1 %.not14, label %15, label %13

13:                                               ; preds = %11
  %14 = tail call ptr @bms_make_singleton(i32 noundef 0) #7
  tail call void @add_vars_to_targetlist(ptr noundef nonnull %0, ptr noundef nonnull %12, ptr noundef %14)
  tail call void @list_free(ptr noundef nonnull %12) #7
  br label %15

15:                                               ; preds = %11, %13, %6
  ret void
}